(dp0
Vhttp://www.address-base.de
p1
ccopy_reg
_reconstructor
p2
(cclasses.request2
Response
p3
c__builtin__
object
p4
Ntp5
Rp6
(dp7
S'status'
p8
(dp9
Vtext
p10
(ihttplib
HTTPMessage
p11
(dp12
S'fp'
p13
Nsg8
S''
p14
sS'startofbody'
p15
NsS'startofheaders'
p16
NsS'subtype'
p17
S'html'
p18
sS'type'
p19
S'text/html'
p20
sS'maintype'
p21
S'text'
p22
sS'headers'
p23
(lp24
S'Date: Wed, 17 Jun 2015 09:34:25 GMT\r\n'
p25
aS'Server: Apache/2.4.7 (Ubuntu)\r\n'
p26
aS'X-Powered-By: PHP/5.5.9-1ubuntu4.9\r\n'
p27
aS'Set-Cookie: cookie_test=please_accept_for_session; expires=Fri, 17-Jul-2015 09:34:25 GMT; Max-Age=2592000; path=/; domain=address-base.de\r\n'
p28
aS'Vary: Accept-Encoding,User-Agent\r\n'
p29
aS'X-Mod-Pagespeed: 1.9.32.3-4448\r\n'
p30
aS'Content-Length: 24814\r\n'
p31
aS'Connection: close\r\n'
p32
aS'Content-Type: text/html; charset=utf-8\r\n'
p33
asS'dict'
p34
(dp35
S'content-length'
p36
S'24814'
p37
sS'x-powered-by'
p38
S'PHP/5.5.9-1ubuntu4.9'
p39
sS'set-cookie'
p40
S'cookie_test=please_accept_for_session; expires=Fri, 17-Jul-2015 09:34:25 GMT; Max-Age=2592000; path=/; domain=address-base.de'
p41
sS'vary'
p42
S'Accept-Encoding,User-Agent'
p43
sS'server'
p44
S'Apache/2.4.7 (Ubuntu)'
p45
sS'connection'
p46
S'close'
p47
sS'date'
p48
S'Wed, 17 Jun 2015 09:34:25 GMT'
p49
sS'content-type'
p50
S'text/html; charset=utf-8'
p51
sS'x-mod-pagespeed'
p52
S'1.9.32.3-4448'
p53
ssS'typeheader'
p54
g51
sS'encodingheader'
p55
NsS'seekable'
p56
I0
sS'unixfrom'
p57
g14
sS'plisttext'
p58
S'; charset=utf-8'
p59
sS'plist'
p60
(lp61
S'charset=utf-8'
p62
asbsVcode
p63
I200
ssS'body'
p64
V<!DOCTYPE HTML>\u000a<html>\u000a<head>\u000a<title>Address-Base - Firmenadressen kaufen zum Sofort-Download</title>\u000a<meta name="keywords" content="Adressen, Firmenadressen kaufen, Adressen kaufen, Adressen download, Firmenadressen, Postadressen, Adressdatenbank, Adressen von firmen, Adressen von Unternehmen, Adresskauf, Adressverlag, Direktmarketing"/>\u000a<meta name="description" content="Firmenadressen kaufen mit hoher Aktualit\ufffd\ufffdt! Adressen kaufen inkl. Sofort-download f\ufffd\ufffdr Ihre Neukundengewinnung."/>\u000a<meta name="robots" content="index,follow"/>\u000a<meta name="google-site-verification" content="154AZvKwIkx3ZuDj6pOE_A_EoL3r7Mm4FQG_E3yiNMQ"/>\u000a<meta name="author" content="Address-Base"/>\u000a<meta name="publisher" content="Address-Base"/>\u000a<meta name="revisit-after" content="1"/>\u000a<link rel="alternate" type="application/rss+xml" title="Address-Base Produkt RSS Feed" href="https://www.address-base.de/rss_news.php"/>\u000a<meta charset="utf-8">\u000a<link rel="shortcut icon" href="https://www.address-base.de/templates/b2btheme/favicon.ico" type="image/x-icon"/>\u000a<meta name="generator" content="modified-shop custom by Robert Hoppe"/>\u000a<meta name="viewport" content="width=device-width"/>\u000a<base href="https://www.address-base.de/"/>\u000a<link rel="stylesheet" type="text/css" href="https://static.address-base.de/templates/b2btheme/stylesheet.css"/>\u000a<link rel="stylesheet" type="text/css" href="https://static.address-base.de/templates/b2btheme/css/homeSuggest.css"/>\u000a<link rel="stylesheet" type="text/css" href="https://static.address-base.de/templates/b2btheme/css/autoSuggest.css"/>\u000a<link rel="stylesheet" type="text/css" href="https://static.address-base.de/templates/b2btheme/css/thickbox.css"/>\u000a<link rel="stylesheet" type="text/css" href="https://static.address-base.de/templates/b2btheme/css/style.css"/>\u000a<link rel="stylesheet" type="text/css" href="https://static.address-base.de/templates/b2btheme/css/style_cf.css"/>\u000a<link rel="stylesheet" type="text/css" href="https://static.address-base.de/templates/b2btheme/css/b2b.css?v=1"/>\u000a<!--[if IE 7]>\u000a<link  href="templates/b2btheme/css/ie7.css" type="text/css" media="screen" />\u000a<![endif]-->\u000a<!--[if gte IE 8]>\u000a<link  href="templates/b2btheme/css/ie8.css" type="text/css" media="screen" />\u000a<![endif]-->\u000a<script src="https://ajax.googleapis.com/ajax/libs/jquery/1.11.1/jquery.min.js"></script>\u000a<script src="https://staticjs.address-base.de/templates/b2btheme/javascript/jquery.autoSuggest.js"></script>\u000a<script src="https://staticjs.address-base.de/templates/b2btheme/javascript/jquery.cycle2.min.js"></script>\u000a<script src="https://staticjs.address-base.de/templates/b2btheme/javascript/cufon.js"></script>\u000a<script src="https://staticjs.address-base.de/templates/b2btheme/javascript/thickbox.js"></script>\u000a<script src="https://staticjs.address-base.de/templates/b2btheme/javascript/lucida_400.font.js"></script>\u000a<script src="https://staticjs.address-base.de/templates/b2btheme/javascript/script.js"></script>\u000a<script>var selected;var submitter=null;function submitFunction(){submitter=1;}\u000afunction popupWindow(url){window.open(url,'popupWindow','toolbar=no,location=no,directories=no,status=no,menubar=no,scrollbars=yes,resizable=yes,copyhistory=no,width=100,height=100,screenX=150,screenY=150,top=150,left=150')}\u000afunction selectRowEffect(object,buttonSelect){if(!selected){if(document.getElementById){selected=document.getElementById('defaultSelected');}else{selected=document.all['defaultSelected'];}}\u000aif(selected)selected.className='moduleRow';object.className='moduleRowSelected';selected=object;if(document.getElementById('payment'[0])){document.getElementById('payment'[buttonSelect]).checked=true;}}\u000afunction rowOverEffect(object){if(object.className=='moduleRow')object.className='moduleRowOver';}\u000afunction rowOutEffect(object){if(object.className=='moduleRowOver')object.className='moduleRow';}\u000afunction popupImageWindow(url){window.open(url,'popupImageWindow','toolbar=no,location=no,directories=no,status=no,menubar=no,scrollbars=no,resizable=yes,copyhistory=no,width=100,height=100,screenX=150,screenY=150,top=150,left=150')}</script>\u000a</head>\u000a<body itemscope itemtype="http://schema.org/WebPage">\u000a<div id="wrapper"> <div id="wrapper_middle_01"> <div id="wrapper_middle"> <div id="wrapper_content"> <header> <div id="header"> <div id="logo"> <a href="/" title="Address-Base - Firmenadressen kaufen zum Sofort-Download"><img src="data:image/png;base64,iVBORw0KGgoAAAANSUhEUgAAARgAAAAkCAMAAABln9XcAAAAzFBMVEUAkr9JSUnEw8P///8Akr8Akr9JSUn///9JSUkAkr////8Akr9JSUlJSUkAkr8Akr9JSUkAkr8Akr9JSUn///8Akr////9JSUkAkr9JSUkAkr8Akr9JSUkAkr8Akr9JSUkAkr9JSUkAkr////8Akr9JSUmT0eQAkr8Akr9JSUkAkr/V7fQAkr9JSUkAkr8Akr8Akr////8Akr8Akr8Akr8RmcMiocgzqMxEr9BJSUlVttRmvtl3xd2Z0+Wq2+q74u7Ew8Pd8Pbu+Pv///92IFQ6AAAANHRSTlMAAAAAAwYRESInJyozRFFUVVdaZm5ycnd7iIqNmaWoqqu7ycnMzM/Y293e4OTu8PP29vn8BbpLgwAABPJJREFUaN7tmgl33DQQgFebjTFgUycGVNNdtipZWhfMkbqHSUrV5P//J3SMpNHY3t3wsMN7ybxkMzqs0XwaXd4sFlpW32wu3rRE3lz8fHv701cnD1MMly9ftEPy7lbJn98/XDDf/THIpf371si3oTbTkuZKjMaS3EjCQDKTzFwyLoaUktTU5ZxDM0hFzYRmsUnVTsF5maJ6SiYB88MwlvaD5fLLFwTMtlNinc87KzW3TghIb/O4uMSpruPKO1u1iVUQQZrFJlnZmDKRhnpdNwWYsxEu7WfD5WN7FoNJTE8qFvvaZNijrlvHxWsKRoQCgR9hcTOCjZqcGszpryNcroFL++o0AlOqkVQ/vpe1MP1rUvBIiNq5YYtNMveVlZQsMyFS1V2BVQwGmimoSR08W77tdr6elgnAnI9weXsDXNr2PAKjesYbCOwc5sUaBlf3VGc3AQU3fulwgJQRbiuwMlIxGKjEqUmwlOahnpIJwGxGwHz0XNoNBqPDOttCYHtfRYhtl49QWGcomL5KwLgHIpOokWnBvBzm8l5zubb6awxGDX+jP3YRmCKsHKajO13rABjeU4nDBUylyKSKnDqZA8xvw2A+KS5XoF9iMGsdC6kNEOSrnvmop9zsIlCc2SVHpwTXwkwDXWUcRCoGw3nVAIvIpJ61dY7r6b1+AjDDXK4Ql7bFYFRvSxMRnIIRBEwOKLSD2qewK6kKVecdRCrdldYJoybTJoD09fhcYN5+xlwwGB3eiXF8dxwYKyUjYMzI23ysEjDmbBObZJkhs0vuBcx1xAWDUU7s1EmThyA4BkzhFiQ3lbS/bhsPagWbOUwRYVuPTcIe6DfBWafSu5ubv9phME2Hj2keTGKXEQ+mMqNsUbg6OVlljYNbrApo1zVjDy+xSeaOA9nEi+/gJenmfTsMpgid1IHtfS3tXPA9tS7ZYg7H+by3/QTHrErBmL/EJEOM5wbzgXBBYNTINibedyaw/UlDgWiS0FOOAyppbOD3wdDTTAZXzAgMMclYOM3MDeYT4YLANO7KkpiugedlDT7bnmZ6YmhOgILbcMJgtlVqcdZYjSMp4SZGYpO5KJlvcWYwV5RLAJO7hdTsngJtNPa6F251ZlV1KGw84Uuk0Nemhqr9S2RXEpNm2dp1IUAnu0QOLL3tKBi7poblNfhKDhb2WOLAFOaGQMB0sOsitQ9mzYjJAh8AZgbTjoOp3YsA63QJvooqxR7V2zJaI21+jsEUwh/gkErANPq1DjFpj4tdXbD/FRj2Hwp6J4fUIySFV4BY7hvMQ3rn+wjmEcwjmHsBsxwQudwv8q4P3Fnme1GF5fcYjJSy76fE3kri+/Fg5HihpAW47nyvNrG8jMAM9F0Sb+W/jpi7hJKcNmI2h8Fs8AMSDZ+E8DE/0qoSNImCyBYtw6fLcO5BKxKe9E+gx4M9V47rzvj1CZLzPWCcjqaSK0Ng4lxPRKJ2NBZUgAJCRgMx0Ij6neILt1eHuLw+3R8xERg0uncAg2PiGDA9iLN+Revk7GRojZG92JA9J+RyPxicXA6AkaNgaM4kX+o/28/lWfyA35X8muJjw6eXkBeDwWtMDCbE2TJaY6IlKmRJ39KUa8xisXp6OY7l8umKgpngGHJwez5gcRowo/84pOTF1/QBGMOpqWALcr85XTwRmMXqyY8XfSoXz5+sFg/0P81O/gHeZrUPEv2ygwAAAABJRU5ErkJggg==" class="png" alt="Address-Base - Firmenadressen kaufen zum Sofort-Download"/></a> </div> <div id="header_right"> <div id="navigation"> <div id="dropdown_menu" class="dropdown"> <ul><li><a href="/">Home</a></li><li class="slash">/</li><li><a title="Firmenadressen in Branchen kategorisiert" href="https://www.address-base.de/Branchen/A:::28_2.html?all=1">Adressen-Shop</a></li><li class="slash">/</li><li><a title="Unser Blog rund um Neukunden mit Adresskauf gewinnen" href="/blog/">Blog</a></li><li class="slash">/</li><li><a title="Kontakt" href="https://www.address-base.de/Kontakt:_:7.html">Kontakt</a></li><li class="slash">/</li><li><a title="Anmelden" href="https://www.address-base.de/login.php">Mein Konto</a></li></ul> </div> </div> </div> <div class="clearfix"></div> </div> </header> <div id="main"> <div id="slider_con"> <h1 class="clean">Address-Base - Adressen kaufen - Firmenadressen kaufen</h1> <div id="slider_area"> <div class="slide"> <a href="https://www.address-base.de/Branchen/A:::28_2.html?all=1"><img src="templates/b2btheme/img/banner/xhome0.jpg.pagespeed.ic.fmG0tozvL6.jpg" class="png" alt="Neukunden? Dann kaufen Sie jetzt Postadressen von Address-Base" width="898" height="277"/></a> <div class="sliding_text_text"> <div class="left_side longer"> <div class="title_1"><a href="https://www.address-base.de/Branchen/A:::28_2.html?all=1" title="Wachsen mit dem Kauf von Adressen und Firmenadressen">Wachstumswochen im Fr&uuml;hling 2015</a></div><span class="clearfix"></span> <div class="title_2"><a href="https://www.address-base.de/Branchen/A:::28_2.html?all=1" title="Firmenadressen: G&uuml;nstig, individuell und erfolgreich!">Mit Top-Adressen neue Firmenkunden gewinnen</a></div> </div> </div> </div> <div class="slide" style="display:none;"> <a href="https://www.address-base.de/Adressen-Beispiel:_:10.html"><img src="templates/b2btheme/img/banner/xhome1.jpg.pagespeed.ic.365dnMdQje.jpg" class="png" alt="Nutzen Sie unsere Firmendatenbank f&uuml;r Ihre Infopost!" width="898" height="277"/></a> <div class="sliding_text_text"> <div class="left_side longer"> <div class="title_1"><a href="https://www.address-base.de/Adressen-Beispiel:_:10.html" title="Stabile Firmenadressen und Adressen f&uuml;r kreative Werbeaktionen">Firmenadressen kaufen, downloaden</a></div><span class="clearfix"></span> <div class="title_2"><a href="https://www.address-base.de/Adressen-Beispiel:_:10.html" title="Individuelle Beratung rund um Adressen">und direkt loslegen...</a></div> </div> </div> </div> <div class="slide" style="display:none;"> <a href="https://www.address-base.de/Adressen-Beispiel:_:10.html"><img src="templates/b2btheme/img/banner/xhome2.jpg.pagespeed.ic.fSKnWe1HnA.jpg" class="png" alt="Wir haben die Adressen, die Sie schon lange gesucht haben!" width="898" height="277"/></a> <div class="sliding_text_text"> <div class="left_side"> <div class="title_1"><a href="https://www.address-base.de/Adressen-Beispiel:_:10.html" title="Selektieren Sie bei uns aus 4 Mio Firmenadressen aus rund 4000 Branchen!">Sch&ouml;pfen Sie Ihre Neukunden</a></div><span class="clearfix"></span> <div class="title_2"><a href="https://www.address-base.de/Adressen-Beispiel:_:10.html" title="Qualit&auml;ts-Adressen d&uuml;rfen auch g&uuml;nstig sein!">aus rund 4 Mio. Datens&auml;tzen und 4.000 Branchen.</a></div> </div> <div class="right_side"> <p>Nutzen Sie unsere qualifizierten<br/>Branchen Daten f&uuml;r zielgenaues<br/>DialogMarketing und erreichen<br/>Sie mit unserem Adressen Angebot top Antwort Quoten.<br/><br/></p> <a href="/Branchen/A:::28_2.html" class="read_more" title="Jetzt durch den Kauf von Firmenanschriften Neukunden gewinnen!">Jetzt Neukunden gewinnen!</a> </div> </div> </div> </div> </div> <div id="content"> <div class="somespace"></div> <div class="container_16"> <div class="grid_10 gridbord"> <div class="gridinner smallgrid"> <h2>&Uuml;berzeugen Sie sich selbst von der Vielfalt unserer Firmenadressen</h2> <p>Werfen Sie doch einfach mal einen Blick in unsere Datenbank und durchsuchen Sie unseren Pool mit Adressen aus &uuml;ber 4000 Branchen.</p> <div id="hsearch"> <form action="advanced_search_result.php" id="quick_find"> <div id="suggestContainer"> <input class="frontsearch searchbox" id="frontsearch" type="text" onblur="if(this.value=='') this.value=this.defaultValue;" onfocus="if(this.value==this.defaultValue) this.value='';" value="Branchen Suche" name="keywords"/> </div> <input type="submit" class="button search front" value="Datenbank durchsuchen"/> <input type="hidden" name="search" value="home"/> <input type="hidden" name="adv" value="1"/> </form> </div> </div> </div> <div class="grid_6 gridbord"> <div class="gridinner smallgrid"> <h3>ADDRESS-BASE auf einen Blick</h3> <ul id="home_menu"> <li><a href="/Branchen/A:::28_2.html?all=1" title="Hochqualitative Firmenadressen">Firmenadressen Shop</a></li> <li><a href="/Firmenadressen-kaufen:_:36.html" title="Warum sollten Sie Firmenadressen kaufen?">Warum Adressen kaufen?</a></li> <li><a href="/Ihr-Nutzen-im-Ueberblick:_:39.html" title="Welche Vorteile haben Sie durch unserere Adressen?">Ihr Nutzen im &Uuml;berblick</a></li> <li><a href="https://auswahl.address-base.de" target="_blank" title="Firmenadressen selektieren">Adressen Selektieren</a></li> <li><a href="/Fragen-und-Antworten:_:44.html" title="Sie haben Fragen zu unserem Angebot an Postadressen?">Fragen und Antworten</a></li> </ul> </div> </div> </div> <div class="clearspace"></div> <div class="container_16"> <div class="grid_16 gridbord"> <div class="gridinner"> <h3>Beliebte Produkte</h3> <div class="container_16 theBestseller"> <div class="grid_4 alpha"> <p class="last-viewed nopad center"><a href="https://www.address-base.de/Branchen/M/Maschinen-Anlagen-und-Apparate-Hersteller::1103.html" class="nobord" title="Maschinen, Anlagen und Apparat... Firmenadressen kaufen"><img class="productboximage" src="/images/product_images/thumbnail_images/x10_4.jpg.pagespeed.ic.CG9Kczm8r3.jpg" alt="Maschinen, Anlagen und Apparat... Firmenadressen" width="140" height="137"/></a></p> <h4 class="center"><a class="nowrap nobord" href="https://www.address-base.de/Branchen/M/Maschinen-Anlagen-und-Apparate-Hersteller::1103.html" title="Maschinen, Anlagen und Apparat... Firmenadressen kaufen">Maschinen, Anlagen und Apparat...</a></h4> <p class="nopad theprice"> ab 2,00 EUR<br/> <span class="small">zzgl. 19 % MwSt.</span></p> </div> <div class="grid_4"> <p class="last-viewed nopad center"><a href="https://www.address-base.de/Branchen/A/Architekten-und-Architekturbueros::79.html" class="nobord" title="Architekten und Architekturb&uuml;... Firmenadressen kaufen"><img class="productboximage" src="/images/product_images/thumbnail_images/x10_1.jpg.pagespeed.ic.gKY0_WL125.jpg" alt="Architekten und Architekturb&uuml;... Firmenadressen" width="140" height="137"/></a></p> <h4 class="center"><a class="nowrap nobord" href="https://www.address-base.de/Branchen/A/Architekten-und-Architekturbueros::79.html" title="Architekten und Architekturb&uuml;... Firmenadressen kaufen">Architekten und Architekturb&uuml;...</a></h4> <p class="nopad theprice"> ab 63,00 EUR<br/> <span class="small">zzgl. 19 % MwSt.</span></p> </div> <div class="grid_4"> <p class="last-viewed nopad center"><a href="https://www.address-base.de/Branchen/H/Hotels::811.html" class="nobord" title="Hotels Firmenadressen kaufen"><img class="productboximage" src="/images/product_images/thumbnail_images/x10_5.jpg.pagespeed.ic.xjBHfOcHsY.jpg" alt="Hotels Firmenadressen" width="140" height="137"/></a></p> <h4 class="center"><a class="nowrap nobord" href="https://www.address-base.de/Branchen/H/Hotels::811.html" title="Hotels Firmenadressen kaufen">Hotels</a></h4> <p class="nopad theprice"> ab 22,00 EUR<br/> <span class="small">zzgl. 19 % MwSt.</span></p> </div> <div class="grid_4 omega"> <p class="last-viewed nopad center"><a href="https://www.address-base.de/Branchen/A/Aerzte-und-Heilberufe::88.html" class="nobord" title="&Auml;rzte und Heilberufe Firmenadressen kaufen"><img class="productboximage" src="/images/product_images/thumbnail_images/x10_2.jpg.pagespeed.ic.MMWYUY2MDb.jpg" alt="&Auml;rzte und Heilberufe Firmenadressen" width="140" height="137"/></a></p> <h4 class="center"><a class="nowrap nobord" href="https://www.address-base.de/Branchen/A/Aerzte-und-Heilberufe::88.html" title="&Auml;rzte und Heilberufe Firmenadressen kaufen">&Auml;rzte und Heilberufe</a></h4> <p class="nopad theprice"> ab 56,00 EUR<br/> <span class="small">zzgl. 19 % MwSt.</span></p> </div> </div> </div> </div> </div> <div class="clearspace"></div> <div class="container_16"> <div class="grid_5 gridbord"> <div class="gridinner textgrid"> <h3>Address-Base</h3> <p>\u000aWir haben uns zum Ziel gesetzt, unseren Kunden kosteng&uuml;nstig hochqualitative Firmenadressen im B2B-Bereich ON DEMAND zur Verf&uuml;gung zu stellen - in unserem <a href="https://www.address-base.de/Branchen/A:::28_2.html" title="Besuchen Sie unseren Adressen Shop und kaufen Sie Firmenadressen">Adress-Shop</a> und &uuml;ber die individuelle <a href="https://auswahl.address-base.de" target="_blank" title="Adressen kaufen nach eigenen Kriterien">Adress-Auswahl</a>.\u000a<br/> <a class="read_more" href="https://www.address-base.de/Firmenadressen-kaufen:_:36.html" title="Warum sollten Unternehmen Firmenadressen kaufen oder Adressen kaufen?">Warum sollte man Firmenadressen kaufen?</a> </p> </div> </div> <div class="grid_5 gridbord"> <div class="gridinner textgrid"> <h3>Qualit&auml;ts-Postadressen</h3> <p>\u000aSie haben die Auswahl aus mehr als 4.000 Branchen mit &uuml;ber 4 Millionen hochwertigen <a href="https://www.address-base.de/Postadressen:_:31.html" title="Firmenadressen kaufen - Adressen kaufen - Postadressen">Postadressen</a> aus Deutschland. Diese Auswahl erm&ouml;glicht Ihnen, Ihre Marketingma&szlig;nahmen sinnvoll und zielgruppen-orientiert einzusetzen.<br/> <a href="https://www.address-base.de/Adressen-Beispiel:_:10.html" class="read_more" title="Erfahren Sie mehr zum Thema Firmenadressen kaufen">mehr erfahren</a> </p> </div> </div> <div class="grid_6 gridbord"> <div class="gridinner textgrid"> <h3 class="colored">Unsere Referenzen</h3> <div class="partner"> <span> <img src="templates/b2btheme/img/logo/xzhaw.png.pagespeed.ic.lOgNaDvaXs.png" alt="zhaw" width="52" height="54"/> </span> <a href="http://www.zhaw.ch" class="grey" title="Unsere Firmenadressen gekauft hat die Z&uuml;rcher Hochschule f&uuml;r angewandte Wissenschaften">Z&uuml;rcher Hochschule f&uuml;r angewandte Wissenschaften</a> </div> <div class="midspace"></div> <div class="partner"> <span> <img src="templates/b2btheme/img/logo/xwpgs.png.pagespeed.ic.kmHIAfmabI.png" alt="wpgs" class="wpgs" width="90" height="25"/> </span> <a href="http://www.wpgs.de/" class="grey" title="Die WPGS w&uuml;rde wieder Adressen kaufen">Wirtschaftspsychologische Gesellschaft</a> </div> <p><a href="https://www.address-base.de/Referenzen:_:78.html" title="Kunden die bei uns Adressen gekauft haben">Weitere &uuml;berzeugte Kunden</a></p> </div> </div> </div> <div class="clearspace"></div> <div class="container_16"> <div class="grid_6 gridbord"> <div class="gridinner textgrid"> <h3>Bin ich hier richtig?</h3> <p>Sie kaufen zum ersten Mal bei einem Adressh&auml;ndler und sind sich unsicher? Wir haben f&uuml;r Sie grund-legende Informationen zum Thema "<a href="https://www.address-base.de/Adressen-kaufen:_:14.html" title="Adressen kaufen">Adressen kaufen</a>" zusammengestellt. Erfahren Sie mehr &uuml;ber die Vorteile, die Ihnen der Zukauf einer <a href="https://www.address-base.de/Firmendatenbank:_:23.html" title="Firmendatenbank">Firmendatenbank</a> bringen kann. Oder lesen Sie unseren informativen Artikel &uuml;ber <a href="/E-Mail-Marketing:_:67.html">E-Mail Marketing</a></p> </div> </div> <div class="grid_10 gridbord"> <div class="gridinner textgrid"> <h3>Ihre Adressensuche hat ein Ende</h3> <p>Bei uns werden Sie f&uuml;ndig. Stellen Sie sich unseren Online-Shop als exklusives Adressbuch f&uuml;r Firmenadressen vor, in dem Sie die gew&uuml;nschten Daten f\ufffd\ufffdr Ihr Marketing nicht nur suchen, sondern auch direkt herunterladen k&ouml;nnen. <a href="https://www.address-base.de/Adressen:_:18.html" title="Adressen">Unsere Adressen</a> enthalten zudem neben den Postadressen auch Zusatzinformationen wie z.B. die Betriebsgr&ouml;&szlig;e oder oft den Ansprechpartner und die Telefonnummer. Diese Zusatzinformationen sind im Preis inbegriffen, der Ihnen immer direkt online angezeigt wird. Die erworbenen Daten k&ouml;nnen Sie dank der <a href="https://www.address-base.de/Adressen-mit-Volllizenz:_:21.html" title="Adressen mit Volllizenz">Volllizenz</a> nach Belieben wieder verwenden.</p> </div> </div> </div> </div> </div> <footer> <div id="foot"> <div class="container_16"> <div class="grid_4"> <div class="inner"> <div class="footer_title cufon">Zuletzt gekauft</div> <ul id="seller"> <li> <a class="nowrap nobord" href="https://www.address-base.de/Branchen/A/Aerzte-niedergelassene::87.html" title="\ufffdrzte, niedergelassene Firmenadressen kaufen"><strong>&Auml;rzte, niedergelassene</strong></a><br/> <span class="small"> 413,00 EUR zzgl. 19 % MwSt.</span> </li> <li> <a class="nowrap nobord" href="https://www.address-base.de/Branchen/F/Fussball-Vereine::625.html" title="Fu\ufffdball-Vereine Firmenadressen kaufen"><strong>Fu&szlig;ball-Vereine</strong></a><br/> <span class="small"> 1.113,00 EUR zzgl. 19 % MwSt.</span> </li> <li> <a class="nowrap nobord" href="https://www.address-base.de/Branchen/K/Kulturelle-Einrichtungen::1004.html" title="Kulturelle Einrichtungen Firmenadressen kaufen"><strong>Kulturelle Einrichtungen</strong></a><br/> <span class="small"> 1.208,00 EUR zzgl. 19 % MwSt.</span> </li> </ul> </div> </div> <div class="grid_4"> <div class="inner"> <div class="footer_title cufon">Webshop</div> <ul> <li><a title="Unsere Firmendatenbank nach Branchen" href="/Branchen/A:::28_2.html?all=1">Branchen-Shop</a></li> <li><a title="Selektieren Sie individuell nach Ihrer Zielgruppe" href="https://auswahl.address-base.de">Individuelle Selektion</a></li> <li><a title="Ein Beispiel aus unserer Firmendatenbank" href="/Adressen-Beispiel:_:10.html">Adressen-Beispiel</a></li> <li><a title="Unser Angebot an Branchen" href="/Unser-Branchenangebot:_:28.html">Branchen&uuml;bersicht</a></li> <li><a title="Unsere Zahlungsm&ouml;glichkeiten" href="/Zahlungsmoeglichkeiten:_:22.html">Zahlungsm&ouml;glichkeiten</a></li> <li><a title="Haben Sie Fragen zu unserem Angebot?" href="/Fragen-und-Antworten:_:44.html">Fragen und Antworten</a></li> <li><a title="Adressen kaufen" href="/Adressen-kaufen:_:14.html">Adressen kaufen</a></li> </ul> </div> </div> <div class="grid_4"> <div class="inner"> <div class="footer_title cufon">Unternehmen</div> <ul> <li><a title="&Uuml;ber uns" href="/Ueber-uns:_:47.html">&Uuml;ber uns</a></li> <li><a title="Referenzen" href="/Referenzen:_:78.html">Unsere Referenzen</a></li> <li><a title="Jobs und Karriere bei Address-Base" href="/Jobs-und-Karriere:_:234.html">Jobs und Karriere</a></li> <li><a title="Treten Sie mit uns in Kontakt!" href="/Kontakt:_:7.html">Kontakt</a></li> <li><a title="Unser Pressebereich!" href="/pressebereich:_:81.html">Pressebereich</a></li> <li><a title="Impressum" href="/Impressum:_:4.html">Impressum</a></li> <li><a title="AGB" href="/Unsere-AGBs:_:3.html">AGB</a></li> </ul> </div> </div> <div class="grid_4"> <div class="inner"> <div class="footer_title cufon">Folgen Sie uns!</div> <a href="http://twitter.com/addressbase"><img src="templates/b2btheme/img/xtwitter_big.png.pagespeed.ic.bE1VIf72YM.png" alt="Address-Base auf Twitter" width="64" height="64"/></a>&nbsp;&nbsp;<a href="http://www.facebook.com/Address.Base"><img src="templates/b2btheme/img/xfacebook_big.png.pagespeed.ic.MwKJFr4Cn_.png" alt="Address-Base auf Facebook" width="64" height="64"/></a> <a href="https://plus.google.com/103250800025112154052" rel="publisher"><img src="templates/b2btheme/img/xgoogle_big.png.pagespeed.ic.5BNAft64sp.png" alt="Address-Base auf Google+" width="64" height="64"/></a> </div> </div> </div> </div> </footer> </div> </div> </div> </div> <div id="footer"> <div class="footer_con"> <div class="part1">\u000aCopyright &copy; 2015 Address-Base\u000a</div> <div class="part2"> <a href="/" title="Startseite">Home</a> | <a title="Listbroking" href="/Listbroking:_:37.html">Listbroking</a> | <a href="/Sitemap:_:8.html" title="Unsere Sitemap">Sitemap</a> | <a href="/Impressum:_:4.html" title="Impressum">Impressum</a> | <a href="/Unsere-AGBs:_:3.html" title="AGBs">Unsere AGBs</a> | <a href="/affiliate_affiliate.php" title="Unser Partnerprogramm">Partnerprogramm</a> </div> <div class="clearfix"></div> </div> </div> <a href='javascript;;' id='toTop'> <span id='toTopHover'></span> <img alt='To top!' height='40' src='templates/b2btheme/images/icons/to-top.png.pagespeed.ce.Px-t3rrk9R.png'/> </a> <script>(function(i,s,o,g,r,a,m){i['GoogleAnalyticsObject']=r;i[r]=i[r]||function(){(i[r].q=i[r].q||[]).push(arguments)},i[r].l=1*new Date();a=s.createElement(o),m=s.getElementsByTagName(o)[0];a.async=1;a.src=g;m.parentNode.insertBefore(a,m)})(window,document,'script','//www.google-analytics.com/analytics.js','ga');ga('create','UA-17491223-1','auto');ga('send','pageview');</script> <script>//<![CDATA[\u000avar google_conversion_id=1032752149;var google_custom_params=window.google_tag_params;var google_remarketing_only=true;\u000a//]]></script> <script src="//www.googleadservices.com/pagead/conversion.js"></script> <noscript><div style="display:inline;"><img height="1" width="1" style="border-style:none;" alt="" src="//googleads.g.doubleclick.net/pagead/viewthroughconversion/1032752149/?value=0&amp;guid=ON&amp;script=0"/></div></noscript> <script>(function(){var _fbq=window._fbq||(window._fbq=[]);if(!_fbq.loaded){var fbds=document.createElement("script");fbds.async=true;fbds.src="//connect.facebook.net/en_US/fbds.js";var s=document.getElementsByTagName("script")[0];s.parentNode.insertBefore(fbds,s);_fbq.loaded=true;}\u000a_fbq.push(["addPixelId","268888213285597"]);})();window._fbq=window._fbq||[];window._fbq.push(["track","PixelInitialized",{}]);</script><noscript><img height="1" width="1" border="0" alt="" style="display:none" src="https://www.facebook.com/tr?id=268888213285597&amp;ev=NoScript"/></noscript></body></html>
p65
sS'protocol'
p66
S'https'
p67
sS'url'
p68
S'https://www.address-base.de/'
p69
sS'should_be_error_page'
p70
I00
sg23
(dp71
S'x'
p72
S'-'
p73
sS's'
p74
S'e'
p75
sS'v'
p76
S'a'
p77
sS'c'
p78
S'o'
p79
sS'd'
p80
g77
ssS'host'
p81
S'www.address-base.de'
p82
sS'crawled_response'
p83
I00
sS'md5_404_text'
p84
S'977dccb376ba50bf5856dc453c07f50b'
p85
sS'id'
p86
V8NCJY6V5DQB2GK08
p87
sS'md5_404'
p88
S'dc6f61f34bebab1bea561835984eb00d'
p89
sS'md5'
p90
S'7999c511f39b1f53778f68fcb9a86ea5'
p91
sbsVhttps://www.address-base.de
p92
g6
s.